; ModuleID = 'probe1.c3c3fd961e66d00c-cgu.0'
source_filename = "probe1.c3c3fd961e66d00c-cgu.0"
target datalayout = "e-m:o-p270:32:32-p271:32:32-p272:64:64-i64:64-f80:128-n8:16:32:64-S128"
target triple = "x86_64-apple-macosx10.12.0"

; core::f64::<impl f64>::to_int_unchecked
; Function Attrs: inlinehint uwtable
define i32 @"_ZN4core3f6421_$LT$impl$u20$f64$GT$16to_int_unchecked17h0b475acde5b81fccE"(double %self) unnamed_addr #0 {
start:
; call <f64 as core::convert::num::FloatToInt<i32>>::to_int_unchecked
  %_0 = call i32 @"_ZN65_$LT$f64$u20$as$u20$core..convert..num..FloatToInt$LT$i32$GT$$GT$16to_int_unchecked17hc9289572819f099bE"(double %self)
  ret i32 %_0
}

; <f64 as core::convert::num::FloatToInt<i32>>::to_int_unchecked
; Function Attrs: inlinehint uwtable
define internal i32 @"_ZN65_$LT$f64$u20$as$u20$core..convert..num..FloatToInt$LT$i32$GT$$GT$16to_int_unchecked17hc9289572819f099bE"(double %self) unnamed_addr #0 {
start:
  %0 = alloca i32, align 4
  %1 = fptosi double %self to i32
  store i32 %1, ptr %0, align 4
  %_0 = load i32, ptr %0, align 4, !noundef !2
  ret i32 %_0
}

; probe1::probe
; Function Attrs: uwtable
define void @_ZN6probe15probe17h5124ae72d7c48081E() unnamed_addr #1 {
start:
; call core::f64::<impl f64>::to_int_unchecked
  %_1 = call i32 @"_ZN4core3f6421_$LT$impl$u20$f64$GT$16to_int_unchecked17h0b475acde5b81fccE"(double 1.000000e+00)
  ret void
}

attributes #0 = { inlinehint uwtable "frame-pointer"="all" "probe-stack"="inline-asm" "target-cpu"="penryn" }
attributes #1 = { uwtable "frame-pointer"="all" "probe-stack"="inline-asm" "target-cpu"="penryn" }

!llvm.module.flags = !{!0}
!llvm.ident = !{!1}

!0 = !{i32 8, !"PIC Level", i32 2}
!1 = !{!"rustc version 1.74.1 (a28077b28 2023-12-04)"}
!2 = !{}
